ccopy_reg
_reconstructor
p1
(csklearn.linear_model.coordinate_descent
Lasso
p2
c__builtin__
object
p3
NtRp4
(dp5
S'normalize'
p6
I00
sS'warm_start'
p7
I01
sS'selection'
p8
S'cyclic'
p9
sS'fit_intercept'
p10
I01
sS'l1_ratio'
p11
F1
sS'max_iter'
p12
I1000
sS'n_iter_'
p13
I521
sS'intercept_'
p14
cnumpy.core.multiarray
scalar
p15
(cnumpy
dtype
p16
(S'f8'
I0
I1
tRp17
(I3
S'<'
NNNI-1
I-1
I0
tbS'\xdcWF\xe7\x19\xa39A'
tRp18
sS'precompute'
p19
I00
sS'random_state'
p20
NsS'_sklearn_version'
p21
S'0.18.1'
p22
sS'tol'
p23
F0.0001
sS'positive'
p24
I00
sS'copy_X'
p25
I01
sS'alpha'
p26
F1
sS'coef_'
p27
cnumpy.core.multiarray
_reconstruct
p28
(cnumpy
ndarray
p29
(I0
tS'b'
tRp30
(I1
(I9
tg17
I00
S'[\xa9yt\xbe7\xe1\xc0%e\xb1\xdfEo\xdc@\xda\xe2\xbc>\xf9\xb2\xc6@\x9b\x1by\xd4\xec\x9c\xc0\xc0\xce5\xa3T\x94\x1e\xa2\xc0[\xa1\x8a\x1bx\x83\x7f\xc0\xdc\xb4n\xa0 \xf9\xa8\xc0~\x0bW\xff\xe4"\xc9@(p&\x1e\xef\xb2\xb6\xc0'
tbsS'dual_gap_'
p31
g28
(g29
(I0
tS'b'
tRp32
(I1
(tg17
I00
S'\x00@\x00\x83\xe7H%B'
tbsb.